target datalayout = "e-m:e-p270:32:32-p271:32:32-p272:64:64-i64:64-i128:128-f80:128-n8:16:32:64-S128"
target triple = "x86_64-pc-linux-gnu"

%"class.open3d::visualization::glsl::PointCloudRenderer" = type { %"class.open3d::visualization::glsl::GeometryRenderer.base", [7 x i8], %"class.open3d::visualization::glsl::SimpleShaderForPointCloud", %"class.open3d::visualization::glsl::PhongShaderForPointCloud", %"class.open3d::visualization::glsl::NormalShaderForPointCloud", %"class.open3d::visualization::glsl::SimpleBlackShaderForPointCloudNormal" }
%"class.open3d::visualization::glsl::GeometryRenderer.base" = type <{ ptr, %"class.std::shared_ptr", i8 }>
%"class.std::shared_ptr" = type { %"class.std::__shared_ptr" }
%"class.std::__shared_ptr" = type { ptr, %"class.std::__shared_count" }
%"class.std::__shared_count" = type { ptr }
%"class.open3d::visualization::glsl::SimpleShaderForPointCloud" = type { %"class.open3d::visualization::glsl::SimpleShader.base", [4 x i8] }
%"class.open3d::visualization::glsl::SimpleShader.base" = type <{ %"class.open3d::visualization::glsl::ShaderWrapper", i32, i32, i32, i32, i32 }>
%"class.open3d::visualization::glsl::ShaderWrapper" = type { ptr, i32, i32, i32, i32, i32, i32, i8, i8, %"class.std::__cxx11::basic_string" }
%"class.std::__cxx11::basic_string" = type { %"struct.std::__cxx11::basic_string<char>::_Alloc_hider", i64, %union.anon }
%"struct.std::__cxx11::basic_string<char>::_Alloc_hider" = type { ptr }
%union.anon = type { i64, [8 x i8] }
%"class.open3d::visualization::glsl::PhongShaderForPointCloud" = type { %"class.open3d::visualization::glsl::PhongShader" }
%"class.open3d::visualization::glsl::PhongShader" = type { %"class.open3d::visualization::glsl::ShaderWrapper", i32, i32, i32, i32, i32, i32, i32, i32, i32, i32, i32, i32, i32, i32, i32, [12 x i8], %"class.Eigen::Matrix", %"class.Eigen::Matrix", %"class.Eigen::Matrix.18", %"class.Eigen::Matrix.18", %"class.Eigen::Matrix.18", %"class.Eigen::Matrix.18" }
%"class.Eigen::Matrix" = type { %"class.Eigen::PlainObjectBase" }
%"class.Eigen::PlainObjectBase" = type { %"class.Eigen::DenseStorage" }
%"class.Eigen::DenseStorage" = type { %"struct.Eigen::internal::plain_array" }
%"struct.Eigen::internal::plain_array" = type { [16 x float] }
%"class.Eigen::Matrix.18" = type { %"class.Eigen::PlainObjectBase.19" }
%"class.Eigen::PlainObjectBase.19" = type { %"class.Eigen::DenseStorage.26" }
%"class.Eigen::DenseStorage.26" = type { %"struct.Eigen::internal::plain_array.27" }
%"struct.Eigen::internal::plain_array.27" = type { [4 x float] }
%"class.open3d::visualization::glsl::NormalShaderForPointCloud" = type { %"class.open3d::visualization::glsl::NormalShader.base", [4 x i8] }
%"class.open3d::visualization::glsl::NormalShader.base" = type <{ %"class.open3d::visualization::glsl::ShaderWrapper", i32, i32, i32, i32, i32, i32, i32 }>
%"class.open3d::visualization::glsl::SimpleBlackShaderForPointCloudNormal" = type { %"class.open3d::visualization::glsl::SimpleBlackShader.base", [4 x i8] }
%"class.open3d::visualization::glsl::SimpleBlackShader.base" = type <{ %"class.open3d::visualization::glsl::ShaderWrapper", i32, i32, i32 }>
%"class.open3d::visualization::glsl::GeometryRenderer" = type <{ ptr, %"class.std::shared_ptr", i8, [7 x i8] }>
%"class.open3d::visualization::RenderOption" = type <{ %"class.open3d::utility::IJsonConvertible", double, double, double, double, double, double, double, double, %"class.Eigen::Matrix.36", i32, i32, i8, [7 x i8], [4 x %"class.Eigen::Matrix.36"], [4 x %"class.Eigen::Matrix.36"], %"class.Eigen::Matrix.36", [4 x double], [4 x double], [4 x double], double, i32, i8, [3 x i8], i32, i32, i8, i8, [6 x i8], %"class.Eigen::Matrix.36", double, i32, i32, i8, [7 x i8] }>
%"class.open3d::utility::IJsonConvertible" = type { ptr }
%"class.Eigen::Matrix.36" = type { %"class.Eigen::PlainObjectBase.37" }
%"class.Eigen::PlainObjectBase.37" = type { %"class.Eigen::DenseStorage.44" }
%"class.Eigen::DenseStorage.44" = type { %"struct.Eigen::internal::plain_array.45" }
%"struct.Eigen::internal::plain_array.45" = type { [3 x double] }
%"class.open3d::geometry::Geometry" = type { ptr, i32, i32, %"class.std::__cxx11::basic_string" }
%"class.open3d::geometry::Geometry3D" = type { %"class.open3d::geometry::Geometry" }
%"class.open3d::geometry::PointCloud" = type { %"class.open3d::geometry::Geometry3D", %"class.std::vector", %"class.std::vector", %"class.std::vector", %"class.std::vector.31" }
%"class.std::vector" = type { %"struct.std::_Vector_base" }
%"struct.std::_Vector_base" = type { %"struct.std::_Vector_base<Eigen::Matrix<double, 3, 1>, std::allocator<Eigen::Matrix<double, 3, 1>>>::_Vector_impl" }
%"struct.std::_Vector_base<Eigen::Matrix<double, 3, 1>, std::allocator<Eigen::Matrix<double, 3, 1>>>::_Vector_impl" = type { %"struct.std::_Vector_base<Eigen::Matrix<double, 3, 1>, std::allocator<Eigen::Matrix<double, 3, 1>>>::_Vector_impl_data" }
%"struct.std::_Vector_base<Eigen::Matrix<double, 3, 1>, std::allocator<Eigen::Matrix<double, 3, 1>>>::_Vector_impl_data" = type { ptr, ptr, ptr }
%"class.std::vector.31" = type { %"struct.std::_Vector_base.32" }
%"struct.std::_Vector_base.32" = type { %"struct.std::_Vector_base<Eigen::Matrix<double, 3, 3>, std::allocator<Eigen::Matrix<double, 3, 3>>>::_Vector_impl" }
%"struct.std::_Vector_base<Eigen::Matrix<double, 3, 3>, std::allocator<Eigen::Matrix<double, 3, 3>>>::_Vector_impl" = type { %"struct.std::_Vector_base<Eigen::Matrix<double, 3, 3>, std::allocator<Eigen::Matrix<double, 3, 3>>>::_Vector_impl_data" }
%"struct.std::_Vector_base<Eigen::Matrix<double, 3, 3>, std::allocator<Eigen::Matrix<double, 3, 3>>>::_Vector_impl_data" = type { ptr, ptr, ptr }

; Function Attrs: mustprogress nounwind ssp uwtable
define linkonce_odr hidden noundef ptr @_ZNKSt12__shared_ptrIKN6open3d8geometry8GeometryELN9__gnu_cxx12_Lock_policyE2EE3getEv(ptr noundef nonnull align 8 dereferenceable(16) %0) #0 comdat align 2 {
  %2 = alloca ptr, align 8
  store ptr %0, ptr %2, align 8, !tbaa !225
  %3 = load ptr, ptr %2, align 8
  %4 = getelementptr inbounds nuw %"class.std::__shared_ptr", ptr %3, i32 0, i32 0
  %5 = load ptr, ptr %4, align 8, !tbaa !227
  ret ptr %5
}

; Function Attrs: mustprogress nounwind ssp uwtable
define linkonce_odr hidden noundef i64 @_ZNKSt6vectorIN5Eigen6MatrixIdLi3ELi1ELi0ELi3ELi1EEESaIS2_EE4sizeEv(ptr noundef nonnull align 8 dereferenceable(24) %0) #0 comdat align 2 {
  %2 = alloca ptr, align 8
  store ptr %0, ptr %2, align 8, !tbaa !228
  %3 = load ptr, ptr %2, align 8
  %4 = getelementptr inbounds nuw %"struct.std::_Vector_base", ptr %3, i32 0, i32 0
  %5 = getelementptr inbounds nuw %"struct.std::_Vector_base<Eigen::Matrix<double, 3, 1>, std::allocator<Eigen::Matrix<double, 3, 1>>>::_Vector_impl_data", ptr %4, i32 0, i32 1
  %6 = load ptr, ptr %5, align 8, !tbaa !230
  %7 = getelementptr inbounds nuw %"struct.std::_Vector_base", ptr %3, i32 0, i32 0
  %8 = getelementptr inbounds nuw %"struct.std::_Vector_base<Eigen::Matrix<double, 3, 1>, std::allocator<Eigen::Matrix<double, 3, 1>>>::_Vector_impl_data", ptr %7, i32 0, i32 0
  %9 = load ptr, ptr %8, align 8, !tbaa !233
  %10 = ptrtoint ptr %6 to i64
  %11 = ptrtoint ptr %9 to i64
  %12 = sub i64 %10, %11
  %13 = sdiv exact i64 %12, 24
  ret i64 %13
}

; Function Attrs: mustprogress nounwind ssp uwtable
define linkonce_odr hidden noundef ptr @_ZNKSt19__shared_ptr_accessIKN6open3d8geometry8GeometryELN9__gnu_cxx12_Lock_policyE2ELb0ELb0EE6_M_getEv(ptr noundef nonnull align 1 dereferenceable(1) %0) #0 comdat align 2 {
  %2 = alloca ptr, align 8
  store ptr %0, ptr %2, align 8, !tbaa !223
  %3 = load ptr, ptr %2, align 8
  %4 = call noundef ptr @_ZNKSt12__shared_ptrIKN6open3d8geometry8GeometryELN9__gnu_cxx12_Lock_policyE2EE3getEv(ptr noundef nonnull align 8 dereferenceable(16) %3) #7
  ret ptr %4
}

; Function Attrs: mustprogress nounwind ssp uwtable
define linkonce_odr hidden noundef zeroext i1 @_ZNK6open3d8geometry10PointCloud10HasNormalsEv(ptr noundef nonnull align 8 dereferenceable(144) %0) #0 comdat align 2 {
  %2 = alloca ptr, align 8
  store ptr %0, ptr %2, align 8, !tbaa !25
  %3 = load ptr, ptr %2, align 8
  %4 = getelementptr inbounds nuw %"class.open3d::geometry::PointCloud", ptr %3, i32 0, i32 1
  %5 = call noundef i64 @_ZNKSt6vectorIN5Eigen6MatrixIdLi3ELi1ELi0ELi3ELi1EEESaIS2_EE4sizeEv(ptr noundef nonnull align 8 dereferenceable(24) %4) #7
  %6 = icmp ugt i64 %5, 0
  br i1 %6, label %7, label %13

7:                                                ; preds = %1
  %8 = getelementptr inbounds nuw %"class.open3d::geometry::PointCloud", ptr %3, i32 0, i32 2
  %9 = call noundef i64 @_ZNKSt6vectorIN5Eigen6MatrixIdLi3ELi1ELi0ELi3ELi1EEESaIS2_EE4sizeEv(ptr noundef nonnull align 8 dereferenceable(24) %8) #7
  %10 = getelementptr inbounds nuw %"class.open3d::geometry::PointCloud", ptr %3, i32 0, i32 1
  %11 = call noundef i64 @_ZNKSt6vectorIN5Eigen6MatrixIdLi3ELi1ELi0ELi3ELi1EEESaIS2_EE4sizeEv(ptr noundef nonnull align 8 dereferenceable(24) %10) #7
  %12 = icmp eq i64 %9, %11
  br label %13

13:                                               ; preds = %7, %1
  %14 = phi i1 [ false, %1 ], [ %12, %7 ]
  ret i1 %14
}

; Function Attrs: mustprogress nounwind ssp uwtable
define linkonce_odr hidden noundef nonnull align 8 dereferenceable(48) ptr @_ZNKSt19__shared_ptr_accessIKN6open3d8geometry8GeometryELN9__gnu_cxx12_Lock_policyE2ELb0ELb0EEdeEv(ptr noundef nonnull align 1 dereferenceable(1) %0) #0 comdat align 2 {
  %2 = alloca ptr, align 8
  store ptr %0, ptr %2, align 8, !tbaa !223
  %3 = load ptr, ptr %2, align 8
  br label %4

4:                                                ; preds = %1
  br label %5

5:                                                ; preds = %4
  br label %6

6:                                                ; preds = %5
  %7 = call noundef ptr @_ZNKSt19__shared_ptr_accessIKN6open3d8geometry8GeometryELN9__gnu_cxx12_Lock_policyE2ELb0ELb0EE6_M_getEv(ptr noundef nonnull align 1 dereferenceable(1) %3) #7
  ret ptr %7
}

; Function Attrs: mustprogress nounwind ssp uwtable
define linkonce_odr hidden noundef ptr @_ZNKSt19__shared_ptr_accessIKN6open3d8geometry8GeometryELN9__gnu_cxx12_Lock_policyE2ELb0ELb0EEptEv(ptr noundef nonnull align 1 dereferenceable(1) %0) #0 comdat align 2 {
  %2 = alloca ptr, align 8
  store ptr %0, ptr %2, align 8, !tbaa !223
  %3 = load ptr, ptr %2, align 8
  %4 = call noundef ptr @_ZNKSt19__shared_ptr_accessIKN6open3d8geometry8GeometryELN9__gnu_cxx12_Lock_policyE2ELb0ELb0EE6_M_getEv(ptr noundef nonnull align 1 dereferenceable(1) %3) #7
  ret ptr %4
}

; Function Attrs: mustprogress ssp uwtable
define hidden noundef zeroext i1 @_ZN6open3d13visualization4glsl18PointCloudRenderer6RenderERKNS0_12RenderOptionERKNS0_11ViewControlE(ptr noundef nonnull align 16 dereferenceable(656) %0, ptr noundef nonnull align 8 dereferenceable(497) %1, ptr noundef nonnull align 16 dereferenceable(728) %2) unnamed_addr #1 align 2 {
  %4 = alloca i1, align 1
  %5 = alloca ptr, align 8
  %6 = alloca ptr, align 8
  %7 = alloca ptr, align 8
  %8 = alloca ptr, align 8
  %9 = alloca i8, align 1
  store ptr %0, ptr %5, align 8, !tbaa !4
  store ptr %1, ptr %6, align 8, !tbaa !11
  store ptr %2, ptr %7, align 8, !tbaa !13
  %10 = load ptr, ptr %5, align 8
  %11 = getelementptr inbounds nuw %"class.open3d::visualization::glsl::GeometryRenderer", ptr %10, i32 0, i32 2
  %12 = load i8, ptr %11, align 8, !tbaa !15, !range !23, !noundef !24
  %13 = trunc i8 %12 to i1
  br i1 %13, label %14, label %21

14:                                               ; preds = %3
  %15 = getelementptr inbounds nuw %"class.open3d::visualization::glsl::GeometryRenderer", ptr %10, i32 0, i32 1
  %16 = call noundef ptr @_ZNKSt19__shared_ptr_accessIKN6open3d8geometry8GeometryELN9__gnu_cxx12_Lock_policyE2ELb0ELb0EEptEv(ptr noundef nonnull align 1 dereferenceable(1) %15) #7
  %17 = load ptr, ptr %16, align 8, !tbaa !9
  %18 = getelementptr inbounds ptr, ptr %17, i64 3
  %19 = load ptr, ptr %18, align 8
  %20 = call noundef zeroext i1 %19(ptr noundef nonnull align 8 dereferenceable(48) %16)
  br i1 %20, label %21, label %22

21:                                               ; preds = %14, %3
  store i1 true, ptr %4, align 1
  br label %93

22:                                               ; preds = %14
  call void @llvm.lifetime.start.p0(i64 8, ptr %8) #7
  %23 = getelementptr inbounds nuw %"class.open3d::visualization::glsl::GeometryRenderer", ptr %10, i32 0, i32 1
  %24 = call noundef nonnull align 8 dereferenceable(48) ptr @_ZNKSt19__shared_ptr_accessIKN6open3d8geometry8GeometryELN9__gnu_cxx12_Lock_policyE2ELb0ELb0EEdeEv(ptr noundef nonnull align 1 dereferenceable(1) %23) #7
  store ptr %24, ptr %8, align 8, !tbaa !25
  call void @llvm.lifetime.start.p0(i64 1, ptr %9) #7
  store i8 1, ptr %9, align 1, !tbaa !27
  %25 = load ptr, ptr %8, align 8, !tbaa !25
  %26 = call noundef zeroext i1 @_ZNK6open3d8geometry10PointCloud10HasNormalsEv(ptr noundef nonnull align 8 dereferenceable(144) %25)
  br i1 %26, label %27, label %77

27:                                               ; preds = %22
  %28 = load ptr, ptr %6, align 8, !tbaa !11
  %29 = getelementptr inbounds nuw %"class.open3d::visualization::RenderOption", ptr %28, i32 0, i32 21
  %30 = load i32, ptr %29, align 8, !tbaa !28
  %31 = icmp eq i32 %30, 9
  br i1 %31, label %32, label %45

32:                                               ; preds = %27
  %33 = getelementptr inbounds nuw %"class.open3d::visualization::glsl::PointCloudRenderer", ptr %10, i32 0, i32 4
  %34 = load ptr, ptr %8, align 8, !tbaa !25
  %35 = load ptr, ptr %6, align 8, !tbaa !11
  %36 = load ptr, ptr %7, align 8, !tbaa !13
  %37 = call noundef zeroext i1 @_ZN6open3d13visualization4glsl13ShaderWrapper6RenderERKNS_8geometry8GeometryERKNS0_12RenderOptionERKNS0_11ViewControlE(ptr noundef nonnull align 8 dereferenceable(72) %33, ptr noundef nonnull align 8 dereferenceable(48) %34, ptr noundef nonnull align 8 dereferenceable(497) %35, ptr noundef nonnull align 16 dereferenceable(728) %36)
  %38 = zext i1 %37 to i32
  %39 = load i8, ptr %9, align 1, !tbaa !27, !range !23, !noundef !24
  %40 = trunc i8 %39 to i1
  %41 = zext i1 %40 to i32
  %42 = and i32 %41, %38
  %43 = icmp ne i32 %42, 0
  %44 = zext i1 %43 to i8
  store i8 %44, ptr %9, align 1, !tbaa !27
  br label %58

45:                                               ; preds = %27
  %46 = getelementptr inbounds nuw %"class.open3d::visualization::glsl::PointCloudRenderer", ptr %10, i32 0, i32 3
  %47 = load ptr, ptr %8, align 8, !tbaa !25
  %48 = load ptr, ptr %6, align 8, !tbaa !11
  %49 = load ptr, ptr %7, align 8, !tbaa !13
  %50 = call noundef zeroext i1 @_ZN6open3d13visualization4glsl13ShaderWrapper6RenderERKNS_8geometry8GeometryERKNS0_12RenderOptionERKNS0_11ViewControlE(ptr noundef nonnull align 8 dereferenceable(72) %46, ptr noundef nonnull align 8 dereferenceable(48) %47, ptr noundef nonnull align 8 dereferenceable(497) %48, ptr noundef nonnull align 16 dereferenceable(728) %49)
  %51 = zext i1 %50 to i32
  %52 = load i8, ptr %9, align 1, !tbaa !27, !range !23, !noundef !24
  %53 = trunc i8 %52 to i1
  %54 = zext i1 %53 to i32
  %55 = and i32 %54, %51
  %56 = icmp ne i32 %55, 0
  %57 = zext i1 %56 to i8
  store i8 %57, ptr %9, align 1, !tbaa !27
  br label %58

58:                                               ; preds = %45, %32
  %59 = load ptr, ptr %6, align 8, !tbaa !11
  %60 = getelementptr inbounds nuw %"class.open3d::visualization::RenderOption", ptr %59, i32 0, i32 22
  %61 = load i8, ptr %60, align 4, !tbaa !43, !range !23, !noundef !24
  %62 = trunc i8 %61 to i1
  br i1 %62, label %63, label %76

63:                                               ; preds = %58
  %64 = getelementptr inbounds nuw %"class.open3d::visualization::glsl::PointCloudRenderer", ptr %10, i32 0, i32 5
  %65 = load ptr, ptr %8, align 8, !tbaa !25
  %66 = load ptr, ptr %6, align 8, !tbaa !11
  %67 = load ptr, ptr %7, align 8, !tbaa !13
  %68 = call noundef zeroext i1 @_ZN6open3d13visualization4glsl13ShaderWrapper6RenderERKNS_8geometry8GeometryERKNS0_12RenderOptionERKNS0_11ViewControlE(ptr noundef nonnull align 8 dereferenceable(72) %64, ptr noundef nonnull align 8 dereferenceable(48) %65, ptr noundef nonnull align 8 dereferenceable(497) %66, ptr noundef nonnull align 16 dereferenceable(728) %67)
  %69 = zext i1 %68 to i32
  %70 = load i8, ptr %9, align 1, !tbaa !27, !range !23, !noundef !24
  %71 = trunc i8 %70 to i1
  %72 = zext i1 %71 to i32
  %73 = and i32 %72, %69
  %74 = icmp ne i32 %73, 0
  %75 = zext i1 %74 to i8
  store i8 %75, ptr %9, align 1, !tbaa !27
  br label %76

76:                                               ; preds = %63, %58
  br label %90

77:                                               ; preds = %22
  %78 = getelementptr inbounds nuw %"class.open3d::visualization::glsl::PointCloudRenderer", ptr %10, i32 0, i32 2
  %79 = load ptr, ptr %8, align 8, !tbaa !25
  %80 = load ptr, ptr %6, align 8, !tbaa !11
  %81 = load ptr, ptr %7, align 8, !tbaa !13
  %82 = call noundef zeroext i1 @_ZN6open3d13visualization4glsl13ShaderWrapper6RenderERKNS_8geometry8GeometryERKNS0_12RenderOptionERKNS0_11ViewControlE(ptr noundef nonnull align 8 dereferenceable(72) %78, ptr noundef nonnull align 8 dereferenceable(48) %79, ptr noundef nonnull align 8 dereferenceable(497) %80, ptr noundef nonnull align 16 dereferenceable(728) %81)
  %83 = zext i1 %82 to i32
  %84 = load i8, ptr %9, align 1, !tbaa !27, !range !23, !noundef !24
  %85 = trunc i8 %84 to i1
  %86 = zext i1 %85 to i32
  %87 = and i32 %86, %83
  %88 = icmp ne i32 %87, 0
  %89 = zext i1 %88 to i8
  store i8 %89, ptr %9, align 1, !tbaa !27
  br label %90

90:                                               ; preds = %77, %76
  %91 = load i8, ptr %9, align 1, !tbaa !27, !range !23, !noundef !24
  %92 = trunc i8 %91 to i1
  store i1 %92, ptr %4, align 1
  call void @llvm.lifetime.end.p0(i64 1, ptr %9) #7
  call void @llvm.lifetime.end.p0(i64 8, ptr %8) #7
  br label %93

93:                                               ; preds = %90, %21
  %94 = load i1, ptr %4, align 1
  ret i1 %94
}