; Function Attrs: mustprogress ssp uwtable
define hidden noundef zeroext i1 @_ZN6open3d13visualization4glsl18PointCloudRenderer6RenderERKNS0_12RenderOptionERKNS0_11ViewControlE(ptr noundef nonnull align 16 dereferenceable(656) %0, ptr noundef nonnull align 8 dereferenceable(497) %1, ptr noundef nonnull align 16 dereferenceable(728) %2) unnamed_addr #1 align 2 {
  %4 = getelementptr inbounds nuw i8, ptr %0, i64 24
  %5 = load i8, ptr %4, align 8, !tbaa !25, !range !31, !noundef !32
  %6 = trunc nuw i8 %5 to i1
  br i1 %6, label %7, label %46

7:                                                ; preds = %3
  %8 = getelementptr inbounds nuw i8, ptr %0, i64 8
  %9 = load ptr, ptr %8, align 8, !tbaa !33
  %10 = load ptr, ptr %9, align 8, !tbaa !4
  %11 = getelementptr inbounds nuw i8, ptr %10, i64 24
  %12 = load ptr, ptr %11, align 8
  %13 = tail call noundef zeroext i1 %12(ptr noundef nonnull align 8 dereferenceable(48) %9)
  br i1 %13, label %46, label %14

14:                                               ; preds = %7
  %15 = load ptr, ptr %8, align 8, !tbaa !33
  %16 = getelementptr inbounds nuw i8, ptr %15, i64 48
  %17 = getelementptr inbounds nuw i8, ptr %15, i64 56
  %18 = load ptr, ptr %17, align 8, !tbaa !34
  %19 = load ptr, ptr %16, align 8, !tbaa !37
  %.not.i = icmp eq ptr %18, %19
  br i1 %.not.i, label %_ZNK6open3d8geometry10PointCloud10HasNormalsEv.exit.thread, label %_ZNK6open3d8geometry10PointCloud10HasNormalsEv.exit

_ZNK6open3d8geometry10PointCloud10HasNormalsEv.exit: ; preds = %14
  %20 = ptrtoint ptr %18 to i64
  %21 = ptrtoint ptr %19 to i64
  %22 = sub i64 %20, %21
  %23 = getelementptr inbounds nuw i8, ptr %15, i64 72
  %24 = getelementptr inbounds nuw i8, ptr %15, i64 80
  %25 = load ptr, ptr %24, align 8, !tbaa !34
  %26 = load ptr, ptr %23, align 8, !tbaa !37
  %27 = ptrtoint ptr %25 to i64
  %28 = ptrtoint ptr %26 to i64
  %29 = sub i64 %27, %28
  %30 = icmp eq i64 %29, %22
  br i1 %30, label %31, label %_ZNK6open3d8geometry10PointCloud10HasNormalsEv.exit.thread

31:                                               ; preds = %_ZNK6open3d8geometry10PointCloud10HasNormalsEv.exit
  %32 = getelementptr inbounds nuw i8, ptr %1, i64 432
  %33 = load i32, ptr %32, align 8, !tbaa !38
  %34 = icmp eq i32 %33, 9
  %. = select i1 %34, i64 464, i64 128
  %35 = getelementptr inbounds nuw i8, ptr %0, i64 %.
  %36 = tail call noundef zeroext i1 @_ZN6open3d13visualization4glsl13ShaderWrapper6RenderERKNS_8geometry8GeometryERKNS0_12RenderOptionERKNS0_11ViewControlE(ptr noundef nonnull align 8 dereferenceable(72) %35, ptr noundef nonnull align 8 dereferenceable(48) %15, ptr noundef nonnull align 8 dereferenceable(497) %1, ptr noundef nonnull align 16 dereferenceable(728) %2)
  %37 = getelementptr inbounds nuw i8, ptr %1, i64 436
  %38 = load i8, ptr %37, align 4, !tbaa !52, !range !31, !noundef !32
  %39 = trunc nuw i8 %38 to i1
  br i1 %39, label %40, label %46

40:                                               ; preds = %31
  %41 = getelementptr inbounds nuw i8, ptr %0, i64 568
  %42 = tail call noundef zeroext i1 @_ZN6open3d13visualization4glsl13ShaderWrapper6RenderERKNS_8geometry8GeometryERKNS0_12RenderOptionERKNS0_11ViewControlE(ptr noundef nonnull align 8 dereferenceable(72) %41, ptr noundef nonnull align 8 dereferenceable(48) %15, ptr noundef nonnull align 8 dereferenceable(497) %1, ptr noundef nonnull align 16 dereferenceable(728) %2)
  %43 = and i1 %36, %42
  br label %46

_ZNK6open3d8geometry10PointCloud10HasNormalsEv.exit.thread: ; preds = %14, %_ZNK6open3d8geometry10PointCloud10HasNormalsEv.exit
  %44 = getelementptr inbounds nuw i8, ptr %0, i64 32
  %45 = tail call noundef zeroext i1 @_ZN6open3d13visualization4glsl13ShaderWrapper6RenderERKNS_8geometry8GeometryERKNS0_12RenderOptionERKNS0_11ViewControlE(ptr noundef nonnull align 8 dereferenceable(72) %44, ptr noundef nonnull align 8 dereferenceable(48) %15, ptr noundef nonnull align 8 dereferenceable(497) %1, ptr noundef nonnull align 16 dereferenceable(728) %2)
  br label %46

46:                                               ; preds = %_ZNK6open3d8geometry10PointCloud10HasNormalsEv.exit.thread, %40, %31, %3, %7
  %.021 = phi i1 [ true, %7 ], [ true, %3 ], [ %43, %40 ], [ %36, %31 ], [ %45, %_ZNK6open3d8geometry10PointCloud10HasNormalsEv.exit.thread ]
  ret i1 %.021
}